; Function Attrs: nounwind uwtable
define hidden void @SDL_GamepadHandleDelayedGuideButton(ptr noundef readnone captures(address) %0) local_unnamed_addr #0 {
  %2 = alloca %union.SDL_Event, align 8
  tail call void @SDL_AssertJoysticksLocked() #10
  %.09 = load ptr, ptr @SDL_gamepads, align 8
  %.not10 = icmp eq ptr %.09, null
  br i1 %.not10, label %.loopexit, label %.lr.ph

.lr.ph:                                           ; preds = %1, %31
  %.011 = phi ptr [ %.0, %31 ], [ %.09, %1 ]
  %3 = load ptr, ptr %.011, align 8
  %4 = icmp eq ptr %3, %0
  br i1 %4, label %5, label %31

5:                                                ; preds = %.lr.ph
  call void @llvm.lifetime.start.p0(i64 128, ptr nonnull %2) #10
  tail call void @SDL_AssertJoysticksLocked() #10
  store i32 1618, ptr %2, align 8
  %6 = tail call i64 @SDL_GetTicks_REAL() #10
  %7 = getelementptr inbounds nuw i8, ptr %.011, i64 72
  %8 = load i64, ptr %7, align 8
  %9 = add i64 %8, 250
  %10 = icmp ult i64 %6, %9
  %11 = load ptr, ptr %.011, align 8
  %12 = getelementptr inbounds nuw i8, ptr %11, i64 240
  br i1 %10, label %13, label %14

13:                                               ; preds = %5
  store i8 1, ptr %12, align 8
  br label %SDL_SendGamepadButton.exit

14:                                               ; preds = %5
  store i8 0, ptr %12, align 8
  %15 = tail call zeroext i1 @SDL_EventEnabled_REAL(i32 noundef 1618) #10
  br i1 %15, label %16, label %SDL_SendGamepadButton.exit

16:                                               ; preds = %14
  %17 = getelementptr inbounds nuw i8, ptr %2, i64 8
  store i64 0, ptr %17, align 8
  %18 = load ptr, ptr %.011, align 8
  %19 = load i32, ptr %18, align 8
  %20 = getelementptr inbounds nuw i8, ptr %2, i64 16
  store i32 %19, ptr %20, align 8
  %21 = getelementptr inbounds nuw i8, ptr %2, i64 20
  store i8 5, ptr %21, align 4
  %22 = getelementptr inbounds nuw i8, ptr %2, i64 21
  store i8 0, ptr %22, align 1
  %23 = call zeroext i1 @SDL_PushEvent_REAL(ptr noundef nonnull %2) #10
  br label %SDL_SendGamepadButton.exit

SDL_SendGamepadButton.exit:                       ; preds = %13, %14, %16
  call void @llvm.lifetime.end.p0(i64 128, ptr nonnull %2) #10
  %24 = load ptr, ptr %.011, align 8
  %25 = getelementptr inbounds nuw i8, ptr %24, i64 312
  %26 = load i64, ptr %25, align 8
  %.not7 = icmp eq i64 %26, 0
  br i1 %.not7, label %27, label %.loopexit

27:                                               ; preds = %SDL_SendGamepadButton.exit
  %28 = call i64 @SDL_GetTicksNS_REAL() #10
  %29 = load ptr, ptr %.011, align 8
  %30 = getelementptr inbounds nuw i8, ptr %29, i64 312
  store i64 %28, ptr %30, align 8
  br label %.loopexit

31:                                               ; preds = %.lr.ph
  %32 = getelementptr inbounds nuw i8, ptr %.011, i64 80
  %.0 = load ptr, ptr %32, align 8
  %.not = icmp eq ptr %.0, null
  br i1 %.not, label %.loopexit, label %.lr.ph, !llvm.loop !62

.loopexit:                                        ; preds = %31, %1, %SDL_SendGamepadButton.exit, %27
  ret void
}